; Function Attrs: mustprogress uwtable
define noundef nonnull ptr @_ZN8nanobind6detail13module_importEP7_object(ptr noundef %0) local_unnamed_addr #15 personality ptr @__gxx_personality_v0 {
  %2 = tail call ptr @PyImport_Import(ptr noundef %0)
  %.not = icmp eq ptr %2, null
  br i1 %.not, label %3, label %8

3:                                                ; preds = %1
  %4 = tail call ptr @__cxa_allocate_exception(i64 40) #27
  invoke void @_ZN8nanobind12python_errorC1Ev(ptr noundef nonnull align 8 dereferenceable(40) %4)
          to label %5 unwind label %6

5:                                                ; preds = %3
  tail call void @__cxa_throw(ptr nonnull %4, ptr nonnull @_ZTIN8nanobind12python_errorE, ptr nonnull @_ZN8nanobind12python_errorD1Ev) #28
  unreachable

6:                                                ; preds = %3
  %7 = landingpad { ptr, i32 }
          cleanup
  tail call void @__cxa_free_exception(ptr nonnull %4) #27
  resume { ptr, i32 } %7

8:                                                ; preds = %1
  ret ptr %2
}